; Function Attrs: mustprogress uwtable
define void @_ZN10BigIntegerppEv(ptr noundef nonnull align 8 dereferenceable(24) %0) local_unnamed_addr #0 align 2 personality ptr @__gxx_personality_v0 {
  %2 = alloca %class.BigUnsigned, align 8
  %3 = load i32, ptr %0, align 8, !tbaa !6
  %4 = icmp eq i32 %3, -1
  %5 = getelementptr inbounds nuw i8, ptr %0, i64 8
  br i1 %4, label %6, label %24

6:                                                ; preds = %1
  tail call void @_ZN11BigUnsignedmmEi(ptr noundef nonnull align 8 dereferenceable(16) %5, i32 noundef 0)
  call void @llvm.lifetime.start.p0(i64 16, ptr nonnull %2) #11
  call void @_ZN11BigUnsignedC1Ei(ptr noundef nonnull align 8 dereferenceable(16) %2, i32 noundef 0)
  %7 = getelementptr inbounds nuw i8, ptr %0, i64 12
  %8 = load i32, ptr %7, align 4, !tbaa !16
  %9 = getelementptr inbounds nuw i8, ptr %2, i64 4
  %10 = load i32, ptr %9, align 4, !tbaa !16
  %.not.i.i = icmp eq i32 %8, %10
  br i1 %.not.i.i, label %.preheader.i.i, label %_ZNK11BigUnsignedeqERKS_.exit

.preheader.i.i:                                   ; preds = %6
  %.not910.not.i.i = icmp eq i32 %8, 0
  br i1 %.not910.not.i.i, label %_ZNK11BigUnsignedeqERKS_.exit, label %.lr.ph.i.i

.lr.ph.i.i:                                       ; preds = %.preheader.i.i
  %11 = getelementptr inbounds nuw i8, ptr %0, i64 16
  %12 = load ptr, ptr %11, align 8, !tbaa !18
  %13 = getelementptr inbounds nuw i8, ptr %2, i64 8
  %14 = load ptr, ptr %13, align 8, !tbaa !18
  %wide.trip.count.i.i = zext i32 %8 to i64
  br label %15

15:                                               ; preds = %15, %.lr.ph.i.i
  %indvars.iv.i.i = phi i64 [ 0, %.lr.ph.i.i ], [ %indvars.iv.next.i.i, %15 ]
  %16 = getelementptr inbounds nuw i64, ptr %12, i64 %indvars.iv.i.i
  %17 = load i64, ptr %16, align 8, !tbaa !19
  %18 = getelementptr inbounds nuw i64, ptr %14, i64 %indvars.iv.i.i
  %19 = load i64, ptr %18, align 8, !tbaa !19
  %.not8.i.i = icmp eq i64 %17, %19
  %indvars.iv.next.i.i = add nuw nsw i64 %indvars.iv.i.i, 1
  %exitcond.not.i.i = icmp ne i64 %indvars.iv.next.i.i, %wide.trip.count.i.i
  %or.cond.not = select i1 %.not8.i.i, i1 %exitcond.not.i.i, i1 false
  br i1 %or.cond.not, label %15, label %_ZNK11BigUnsignedeqERKS_.exit, !llvm.loop !27

_ZNK11BigUnsignedeqERKS_.exit:                    ; preds = %15, %.preheader.i.i, %6
  %.07.i.i = phi i1 [ false, %6 ], [ true, %.preheader.i.i ], [ %.not8.i.i, %15 ]
  %20 = getelementptr inbounds nuw i8, ptr %2, i64 8
  %21 = load ptr, ptr %20, align 8, !tbaa !18
  %22 = icmp eq ptr %21, null
  br i1 %22, label %_ZN15NumberlikeArrayImED2Ev.exit, label %23

23:                                               ; preds = %_ZNK11BigUnsignedeqERKS_.exit
  call void @_ZdaPv(ptr noundef nonnull %21) #9
  br label %_ZN15NumberlikeArrayImED2Ev.exit

_ZN15NumberlikeArrayImED2Ev.exit:                 ; preds = %_ZNK11BigUnsignedeqERKS_.exit, %23
  call void @llvm.lifetime.end.p0(i64 16, ptr nonnull %2) #11
  br i1 %.07.i.i, label %.sink.split, label %25

24:                                               ; preds = %1
  tail call void @_ZN11BigUnsignedppEi(ptr noundef nonnull align 8 dereferenceable(16) %5, i32 noundef 0)
  br label %.sink.split

.sink.split:                                      ; preds = %_ZN15NumberlikeArrayImED2Ev.exit, %24
  %.sink = phi i32 [ 1, %24 ], [ 0, %_ZN15NumberlikeArrayImED2Ev.exit ]
  store i32 %.sink, ptr %0, align 8, !tbaa !6
  br label %25

25:                                               ; preds = %.sink.split, %_ZN15NumberlikeArrayImED2Ev.exit
  ret void
}